; Function Attrs: nounwind sspstrong uwtable
define dso_local void @tcg_gen_muli_i32(ptr noundef %0, ptr noundef %1, i32 noundef %2) local_unnamed_addr #2 {
  %4 = icmp eq i32 %2, 0
  br i1 %4, label %5, label %is_power_of_2.exit

5:                                                ; preds = %3
  %6 = tail call ptr @tcg_constant_i32(i32 noundef 0) #6
  %.not.i.i = icmp eq ptr %0, %6
  br i1 %.not.i.i, label %tcg_gen_movi_i32.exit, label %7

7:                                                ; preds = %5
  %8 = tail call align 8 ptr @llvm.threadlocal.address.p0(ptr align 8 @tcg_ctx)
  %9 = load ptr, ptr %8, align 8
  %10 = ptrtoint ptr %0 to i64
  %11 = getelementptr inbounds nuw i8, ptr %9, i64 %10
  %12 = ptrtoint ptr %11 to i64
  %13 = ptrtoint ptr %6 to i64
  %14 = getelementptr inbounds nuw i8, ptr %9, i64 %13
  %15 = ptrtoint ptr %14 to i64
  %16 = tail call ptr @tcg_gen_op2(i32 noundef 5, i32 noundef 0, i64 noundef %12, i64 noundef %15)
  br label %tcg_gen_movi_i32.exit

is_power_of_2.exit:                               ; preds = %3
  %17 = sext i32 %2 to i64
  %18 = tail call range(i64 1, 65) i64 @llvm.ctpop.i64(i64 %17)
  %.not4.i = icmp samesign ult i64 %18, 2
  br i1 %.not4.i, label %19, label %47

19:                                               ; preds = %is_power_of_2.exit
  %20 = tail call range(i32 0, 32) i32 @llvm.cttz.i32(i32 range(i32 1, 0) %2, i1 true)
  %21 = icmp eq i32 %20, 0
  br i1 %21, label %22, label %33

22:                                               ; preds = %19
  %.not.i.i8 = icmp eq ptr %0, %1
  br i1 %.not.i.i8, label %tcg_gen_movi_i32.exit, label %23

23:                                               ; preds = %22
  %24 = tail call align 8 ptr @llvm.threadlocal.address.p0(ptr align 8 @tcg_ctx)
  %25 = load ptr, ptr %24, align 8
  %26 = ptrtoint ptr %0 to i64
  %27 = getelementptr inbounds nuw i8, ptr %25, i64 %26
  %28 = ptrtoint ptr %27 to i64
  %29 = ptrtoint ptr %1 to i64
  %30 = getelementptr inbounds nuw i8, ptr %25, i64 %29
  %31 = ptrtoint ptr %30 to i64
  %32 = tail call ptr @tcg_gen_op2(i32 noundef 5, i32 noundef 0, i64 noundef %28, i64 noundef %31)
  br label %tcg_gen_movi_i32.exit

33:                                               ; preds = %19
  %34 = tail call ptr @tcg_constant_i32(i32 noundef %20) #6
  %35 = tail call align 8 ptr @llvm.threadlocal.address.p0(ptr align 8 @tcg_ctx)
  %36 = load ptr, ptr %35, align 8
  %37 = ptrtoint ptr %0 to i64
  %38 = getelementptr inbounds nuw i8, ptr %36, i64 %37
  %39 = ptrtoint ptr %38 to i64
  %40 = ptrtoint ptr %1 to i64
  %41 = getelementptr inbounds nuw i8, ptr %36, i64 %40
  %42 = ptrtoint ptr %41 to i64
  %43 = ptrtoint ptr %34 to i64
  %44 = getelementptr inbounds nuw i8, ptr %36, i64 %43
  %45 = ptrtoint ptr %44 to i64
  %46 = tail call ptr @tcg_gen_op3(i32 noundef 29, i32 noundef 0, i64 noundef %39, i64 noundef %42, i64 noundef %45)
  br label %tcg_gen_movi_i32.exit

47:                                               ; preds = %is_power_of_2.exit
  %48 = tail call ptr @tcg_constant_i32(i32 noundef %2) #6
  %49 = tail call align 8 ptr @llvm.threadlocal.address.p0(ptr align 8 @tcg_ctx)
  %50 = load ptr, ptr %49, align 8
  %51 = ptrtoint ptr %0 to i64
  %52 = getelementptr inbounds nuw i8, ptr %50, i64 %51
  %53 = ptrtoint ptr %52 to i64
  %54 = ptrtoint ptr %1 to i64
  %55 = getelementptr inbounds nuw i8, ptr %50, i64 %54
  %56 = ptrtoint ptr %55 to i64
  %57 = ptrtoint ptr %48 to i64
  %58 = getelementptr inbounds nuw i8, ptr %50, i64 %57
  %59 = ptrtoint ptr %58 to i64
  %60 = tail call ptr @tcg_gen_op3(i32 noundef 19, i32 noundef 0, i64 noundef %53, i64 noundef %56, i64 noundef %59)
  br label %tcg_gen_movi_i32.exit

tcg_gen_movi_i32.exit:                            ; preds = %33, %23, %22, %7, %5, %47
  ret void
}